; ModuleID = 'bench/boost/original/exit_argc.ll'
source_filename = "bench/boost/original/exit_argc.ll"
target datalayout = "e-m:e-p270:32:32-p271:32:32-p272:64:64-i64:64-i128:128-f80:128-n8:16:32:64-S128"
target triple = "x86_64-pc-linux-gnu"

%"class.std::ios_base::Init" = type { i8 }
%"class.std::basic_ostream" = type { ptr, %"class.std::basic_ios" }
%"class.std::basic_ios" = type { %"class.std::ios_base", ptr, i8, i8, ptr, ptr, ptr, ptr }
%"class.std::ios_base" = type { ptr, i64, i64, i32, i32, i32, ptr, %"struct.std::ios_base::_Words", [8 x %"struct.std::ios_base::_Words"], i32, ptr, %"class.std::locale" }
%"struct.std::ios_base::_Words" = type { ptr, i64 }
%"class.std::locale" = type { ptr }

@_ZStL8__ioinit = internal global %"class.std::ios_base::Init" zeroinitializer, align 1
@__dso_handle = external hidden global i8
@_ZSt4cout = external global %"class.std::basic_ostream", align 8
@llvm.global_ctors = appending global [1 x { i32, ptr, ptr }] [{ i32, ptr, ptr } { i32 65535, ptr @_GLOBAL__sub_I_exit_argc.cpp, ptr null }]

declare void @_ZNSt8ios_base4InitC1Ev(ptr noundef nonnull align 1 dereferenceable(1)) unnamed_addr #0

; Function Attrs: nounwind
declare void @_ZNSt8ios_base4InitD1Ev(ptr noundef nonnull align 1 dereferenceable(1)) unnamed_addr #1

; Function Attrs: nofree nounwind
declare i32 @__cxa_atexit(ptr, ptr, ptr) local_unnamed_addr #2

; Function Attrs: mustprogress norecurse uwtable
define hidden noundef i32 @main(i32 noundef returned %0, ptr nocapture noundef readonly %1) local_unnamed_addr #3 {
  %3 = alloca i8, align 1
  %4 = icmp sgt i32 %0, 0
  br i1 %4, label %.lr.ph.preheader, label %._crit_edge

.lr.ph.preheader:                                 ; preds = %2
  %wide.trip.count = zext nneg i32 %0 to i64
  br label %.lr.ph

._crit_edge:                                      ; preds = %_ZStlsISt11char_traitsIcEERSt13basic_ostreamIcT_ES5_c.exit, %2
  ret i32 %0

.lr.ph:                                           ; preds = %.lr.ph.preheader, %_ZStlsISt11char_traitsIcEERSt13basic_ostreamIcT_ES5_c.exit
  %indvars.iv = phi i64 [ 0, %.lr.ph.preheader ], [ %indvars.iv.next, %_ZStlsISt11char_traitsIcEERSt13basic_ostreamIcT_ES5_c.exit ]
  %5 = getelementptr inbounds ptr, ptr %1, i64 %indvars.iv
  %6 = load ptr, ptr %5, align 8, !tbaa !4
  %.not.i = icmp eq ptr %6, null
  br i1 %.not.i, label %7, label %15

7:                                                ; preds = %.lr.ph
  %8 = load ptr, ptr @_ZSt4cout, align 8, !tbaa !8
  %9 = getelementptr i8, ptr %8, i64 -24
  %10 = load i64, ptr %9, align 8
  %11 = getelementptr inbounds i8, ptr @_ZSt4cout, i64 %10
  %12 = getelementptr inbounds nuw i8, ptr %11, i64 32
  %13 = load i32, ptr %12, align 8, !tbaa !10
  %14 = or i32 %13, 1
  call void @_ZNSt9basic_iosIcSt11char_traitsIcEE5clearESt12_Ios_Iostate(ptr noundef nonnull align 8 dereferenceable(264) %11, i32 noundef %14)
  br label %_ZStlsISt11char_traitsIcEERSt13basic_ostreamIcT_ES5_PKc.exit

15:                                               ; preds = %.lr.ph
  %16 = call noundef i64 @strlen(ptr noundef nonnull dereferenceable(1) %6) #7
  %17 = call noundef nonnull align 8 dereferenceable(8) ptr @_ZSt16__ostream_insertIcSt11char_traitsIcEERSt13basic_ostreamIT_T0_ES6_PKS3_l(ptr noundef nonnull align 8 dereferenceable(8) @_ZSt4cout, ptr noundef nonnull %6, i64 noundef %16)
  br label %_ZStlsISt11char_traitsIcEERSt13basic_ostreamIcT_ES5_PKc.exit

_ZStlsISt11char_traitsIcEERSt13basic_ostreamIcT_ES5_PKc.exit: ; preds = %7, %15
  call void @llvm.lifetime.start.p0(i64 1, ptr nonnull %3)
  store i8 10, ptr %3, align 1, !tbaa !18
  %18 = load ptr, ptr @_ZSt4cout, align 8, !tbaa !8
  %19 = getelementptr i8, ptr %18, i64 -24
  %20 = load i64, ptr %19, align 8
  %gep = getelementptr i8, ptr getelementptr inbounds (i8, ptr @_ZSt4cout, i64 16), i64 %20
  %21 = load i64, ptr %gep, align 8, !tbaa !19
  %.not.i6 = icmp eq i64 %21, 0
  br i1 %.not.i6, label %24, label %22

22:                                               ; preds = %_ZStlsISt11char_traitsIcEERSt13basic_ostreamIcT_ES5_PKc.exit
  %23 = call noundef nonnull align 8 dereferenceable(8) ptr @_ZSt16__ostream_insertIcSt11char_traitsIcEERSt13basic_ostreamIT_T0_ES6_PKS3_l(ptr noundef nonnull align 8 dereferenceable(8) @_ZSt4cout, ptr noundef nonnull %3, i64 noundef 1)
  br label %_ZStlsISt11char_traitsIcEERSt13basic_ostreamIcT_ES5_c.exit

24:                                               ; preds = %_ZStlsISt11char_traitsIcEERSt13basic_ostreamIcT_ES5_PKc.exit
  %25 = call noundef nonnull align 8 dereferenceable(8) ptr @_ZNSo3putEc(ptr noundef nonnull align 8 dereferenceable(8) @_ZSt4cout, i8 noundef signext 10)
  br label %_ZStlsISt11char_traitsIcEERSt13basic_ostreamIcT_ES5_c.exit

_ZStlsISt11char_traitsIcEERSt13basic_ostreamIcT_ES5_c.exit: ; preds = %22, %24
  call void @llvm.lifetime.end.p0(i64 1, ptr nonnull %3)
  %indvars.iv.next = add nuw nsw i64 %indvars.iv, 1
  %exitcond.not = icmp eq i64 %indvars.iv.next, %wide.trip.count
  br i1 %exitcond.not, label %._crit_edge, label %.lr.ph, !llvm.loop !20
}

declare noundef nonnull align 8 dereferenceable(8) ptr @_ZSt16__ostream_insertIcSt11char_traitsIcEERSt13basic_ostreamIT_T0_ES6_PKS3_l(ptr noundef nonnull align 8 dereferenceable(8), ptr noundef, i64 noundef) local_unnamed_addr #0

declare void @_ZNSt9basic_iosIcSt11char_traitsIcEE5clearESt12_Ios_Iostate(ptr noundef nonnull align 8 dereferenceable(264), i32 noundef) local_unnamed_addr #0

; Function Attrs: mustprogress nofree nounwind willreturn memory(argmem: read)
declare i64 @strlen(ptr nocapture noundef) local_unnamed_addr #4

declare noundef nonnull align 8 dereferenceable(8) ptr @_ZNSo3putEc(ptr noundef nonnull align 8 dereferenceable(8), i8 noundef signext) local_unnamed_addr #0

; Function Attrs: uwtable
define internal void @_GLOBAL__sub_I_exit_argc.cpp() #5 section ".text.startup" {
  tail call void @_ZNSt8ios_base4InitC1Ev(ptr noundef nonnull align 1 dereferenceable(1) @_ZStL8__ioinit)
  %1 = tail call i32 @__cxa_atexit(ptr nonnull @_ZNSt8ios_base4InitD1Ev, ptr nonnull @_ZStL8__ioinit, ptr nonnull @__dso_handle) #7
  ret void
}

; Function Attrs: nocallback nofree nosync nounwind willreturn memory(argmem: readwrite)
declare void @llvm.lifetime.start.p0(i64 immarg, ptr nocapture) #6

; Function Attrs: nocallback nofree nosync nounwind willreturn memory(argmem: readwrite)
declare void @llvm.lifetime.end.p0(i64 immarg, ptr nocapture) #6


!llvm.module.flags = !{!0, !1, !2, !3}

!0 = !{i32 1, !"wchar_size", i32 4}
!1 = !{i32 8, !"PIC Level", i32 2}
!2 = !{i32 7, !"PIE Level", i32 2}
!3 = !{i32 7, !"uwtable", i32 2}
!4 = !{!5, !5, i64 0}
!5 = !{!"any pointer", !6, i64 0}
!6 = !{!"omnipotent char", !7, i64 0}
!7 = !{!"Simple C++ TBAA"}
!8 = !{!9, !9, i64 0}
!9 = !{!"vtable pointer", !7, i64 0}
!10 = !{!11, !14, i64 32}
!11 = !{!"_ZTSSt8ios_base", !12, i64 8, !12, i64 16, !13, i64 24, !14, i64 28, !14, i64 32, !5, i64 40, !15, i64 48, !6, i64 64, !16, i64 192, !5, i64 200, !17, i64 208}
!12 = !{!"long", !6, i64 0}
!13 = !{!"_ZTSSt13_Ios_Fmtflags", !6, i64 0}
!14 = !{!"_ZTSSt12_Ios_Iostate", !6, i64 0}
!15 = !{!"_ZTSNSt8ios_base6_WordsE", !5, i64 0, !12, i64 8}
!16 = !{!"int", !6, i64 0}
!17 = !{!"_ZTSSt6locale", !5, i64 0}
!18 = !{!6, !6, i64 0}
!19 = !{!11, !12, i64 16}
!20 = distinct !{!20, !21}
!21 = !{!"llvm.loop.mustprogress"}
